MPASM 5.84           CONTADOR_CON_MACROS.ASM   10-30-2019  0:15:33         PAGE  1


LOC  OBJECT CODE     LINE SOURCE TEXT
  VALUE

                      00001 
                      00002 ;============================================================
                      00003 ;               Cuenta pulsos de un buton en el RB4 e incrementa un contador
                      00004 ;               Con 5 pulsos se activa RB0 led rojo
                      00005 ;=============================================================
                      00006 ; __config 0xFF32
2007   3F32           00007  __CONFIG _FOSC_HS & _WDTE_OFF & _PWRTE_ON & _BOREN_OFF & _LVP_OFF & _CPD_OFF & _WRT_OFF & _CP_OFF
                      00008  
                      00009             LIST            p=16F873A
                      00010             INCLUDE         <P16F873A.INC>
                      00001         LIST
                      00002 
                      00003 ;==========================================================================
                      00004 ; Build date : Mar 17 2019
                      00005 ;  MPASM PIC16F873A processor include
                      00006 ; 
                      00007 ;  (c) Copyright 1999-2019 Microchip Technology, All rights reserved
                      00008 ;==========================================================================
                      00009 
                      00527         LIST
                      00011             INCLUDE         <MACROPIC.INC>
                      00001 ;********************************************************
                      00002 ;*      Macropic.inc 1.2                                *
                      00003 ;*      Version:  1.0                                   *                             
                      00004 ;********************************************************
                      00005 
                      00006 
                      00007 ;*********** Para cambiar de banco de memoria RAM **************
                      00008 
                      00009 BANCO   macro   x
                      00010         if x == 0
                      00011                 bcf     STATUS,RP0
                      00012                 bcf     STATUS,RP1
                      00013         endif
                      00014         if x == 1
                      00015                 bsf     STATUS,RP0
                      00016                 bcf     STATUS,RP1
                      00017         endif
                      00018         if x == 2
                      00019                 bcf     STATUS,RP0
                      00020                 bsf     STATUS,RP1
                      00021         endif
                      00022         if x == 3
                      00023                 bsf     STATUS,RP0
                      00024                 bsf     STATUS,RP1
                      00025         endif
                      00026         endm
                      00027 
                      00028 ;*********** Para cambiar de página en memoria FLASH **************
                      00029 
                      00030 PAGINA  macro   x
                      00031         if x == 0
                      00032                 bcf     PCLATH,3
MPASM 5.84           CONTADOR_CON_MACROS.ASM   10-30-2019  0:15:33         PAGE  2


LOC  OBJECT CODE     LINE SOURCE TEXT
  VALUE

                      00033                 bcf     PCLATH,4
                      00034         endif
                      00035         if x == 1
                      00036                 bsf     PCLATH,3
                      00037                 bcf     PCLATH,4
                      00038         endif
                      00039         if x == 2
                      00040                 bcf     PCLATH,3
                      00041                 bsf     PCLATH,4
                      00042         endif
                      00043         if x == 3
                      00044                 bsf     PCLATH,3
                      00045                 bsf     PCLATH,4
                      00046         endif
                      00047         endm
                      00048 
                      00049 ;********** Mover un dato a un registro ***************
                      00050 
                      00051 MOV             macro   registro, literal
                      00052                 movlw   literal
                      00053                 movwf   registro
                      00054                 endm
                      00055 
                      00056 ;********** Movrer el dato de un registro a otro **********
                      00057 
                      00058 MOVR            macro   registro1,registro2
                      00059                 movf    registro2,0
                      00060                 movwf   registro1
                      00061                 endm
                      00062 
                      00063 ;************* Compara y salta a la dirección si no es igual, el dato al registro *****************
                      00064 
                      00065 CJNE    macro   registro,dato,direcc
                      00066         movlw   dato
                      00067         subwf   registro,0
                      00068         btfss   STATUS,Z
                      00069         goto    direcc
                      00070         endm
                      00071 
                      00072 ;************ Compara y salta a la dirección si es igual, el dato al registro *****************
                      00073 
                      00074 CJE     macro   registro, dato, direcc
                      00075         movlw   dato
                      00076         subwf   registro,0
                      00077         btfsc   STATUS,Z
                      00078         goto    direcc
                      00079         endm
                      00080 
                      00081 ;************** Salta a la dirección si el Bit del Registro es  1 *********************
                      00082 
                      00083 JBS     MACRO   Reg, Bit, Adr   ;saltar si bit esta seteado
                      00084         btfsc   Reg, Bit
                      00085         goto    Adr     
MPASM 5.84           CONTADOR_CON_MACROS.ASM   10-30-2019  0:15:33         PAGE  3


LOC  OBJECT CODE     LINE SOURCE TEXT
  VALUE

                      00086         endm
                      00087 
                      00088 
                      00089 ;************** Salta a la dirección si el Bit del Registro es  0 *********************
                      00090 
                      00091 JBC     MACRO   Reg, Bit, Adr   ;saltar si bit esta aclarado
                      00092         btfss   Reg, Bit
                      00093         goto    Adr     
                      00094         endm
                      00095 
                      00096 
                      00097                                 
                      00012             
                      00013             CBLOCK          0x20
  00000020            00014             CONTADOR
                      00015             ENDC
                      00016 
                      00017             ORG 0
                      00018         
                      00019 ;--------------- Configuración Inicial ------------------
                      00020 
                      00021             BANCO           1       
                          M         if 1 == 0
                          M                 bcf     STATUS,RP0
                          M                 bcf     STATUS,RP1
                          M         endif
                          M         if 1 == 1
0000   1683               M                 bsf     STATUS,RP0
0001   1303               M                 bcf     STATUS,RP1
                          M         endif
                          M         if 1 == 2
                          M                 bcf     STATUS,RP0
                          M                 bsf     STATUS,RP1
                          M         endif
                          M         if 1 == 3
                          M                 bsf     STATUS,RP0
                          M                 bsf     STATUS,RP1
                          M         endif
                      00022             MOV             TRISB, B'11110000'
0002   30F0               M                 movlw   B'11110000'
Message[302]: Register in operand not in bank 0.  Ensure that bank bits are correct.
0003   0086               M                 movwf   TRISB
                      00023             BANCO           0
                          M         if 0 == 0
0004   1283               M                 bcf     STATUS,RP0
0005   1303               M                 bcf     STATUS,RP1
                          M         endif
                          M         if 0 == 1
                          M                 bsf     STATUS,RP0
                          M                 bcf     STATUS,RP1
                          M         endif
                          M         if 0 == 2
                          M                 bcf     STATUS,RP0
MPASM 5.84           CONTADOR_CON_MACROS.ASM   10-30-2019  0:15:33         PAGE  4


LOC  OBJECT CODE     LINE SOURCE TEXT
  VALUE

                          M                 bsf     STATUS,RP1
                          M         endif
                          M         if 0 == 3
                          M                 bsf     STATUS,RP0
                          M                 bsf     STATUS,RP1
                          M         endif
                      00024             
0006   0186           00025             clrf            PORTB
0007   01A0           00026             clrf            CONTADOR
                      00027 
0008                  00028 loop
0008   1A06           00029             btfsc           PORTB,4             ;Salta a incrementa si RB4 = 0
0009   2???           00030             goto            loop
                      00031             
                      00032 ;****** Rutina para incrementar contador **********
                      00033 
000A   1E06           00034             btfss           PORTB,4
000B   2???           00035             goto            $-.1                ;Espera que suelten un pulsador
                      00036           
000C   0AA0           00037             incf            CONTADOR,F          ;Incrementa contador
                      00038             
                      00039             CJE             CONTADOR, .5, encender_led
000D   3005               M         movlw   .5
000E   0220               M         subwf   CONTADOR,0
000F   1903               M         btfsc   STATUS,Z
0010   2???               M         goto    encender_led
                      00040             CJE             CONTADOR, .10, encender_led1
0011   300A               M         movlw   .10
0012   0220               M         subwf   CONTADOR,0
0013   1903               M         btfsc   STATUS,Z
0014   2???               M         goto    encender_led1
0015   2???           00041             goto            loop
                      00042 
                      00043 ;************* Encender Led *******************
                      00044             
0016                  00045 encender_led
                      00046             
0016   1406           00047             bsf             PORTB,0             ;Activa RB0 y regresa
0017   2???           00048             goto            loop
                      00049 
0018                  00050 encender_led1       
                      00051             
                      00052               
0018   1486           00053             bsf             PORTB,1             ;Activa RB0 y regresa
0019   2???           00054             goto            loop
                      00055             
3F32                  00056             END
MPASM 5.84           CONTADOR_CON_MACROS.ASM   10-30-2019  0:15:33         PAGE  5


SYMBOL TABLE
  LABEL                             VALUE 

ACKDT                             00000005
ACKEN                             00000004
ACKSTAT                           00000006
ADCON0                            0000001F
ADCON1                            0000009F
ADCS0                             00000006
ADCS1                             00000007
ADCS2                             00000006
ADDEN                             00000003
ADFM                              00000007
ADIE                              00000006
ADIF                              00000006
ADON                              00000000
ADRESH                            0000001E
ADRESL                            0000009E
BANCO                             
BCLIE                             00000003
BCLIF                             00000003
BF                                00000000
BRGH                              00000002
C                                 00000000
C1INV                             00000004
C1OUT                             00000006
C2INV                             00000005
C2OUT                             00000007
CCP1CON                           00000017
CCP1IE                            00000002
CCP1IF                            00000002
CCP1M0                            00000000
CCP1M1                            00000001
CCP1M2                            00000002
CCP1M3                            00000003
CCP1X                             00000005
CCP1Y                             00000004
CCP2CON                           0000001D
CCP2IE                            00000000
CCP2IF                            00000000
CCP2M0                            00000000
CCP2M1                            00000001
CCP2M2                            00000002
CCP2M3                            00000003
CCP2X                             00000005
CCP2Y                             00000004
CCPR1                             00000015
CCPR1H                            00000016
CCPR1L                            00000015
CCPR2                             0000001B
CCPR2H                            0000001C
CCPR2L                            0000001B
CHS0                              00000003
CHS1                              00000004
CHS2                              00000005
CIS                               00000003
MPASM 5.84           CONTADOR_CON_MACROS.ASM   10-30-2019  0:15:33         PAGE  6


SYMBOL TABLE
  LABEL                             VALUE 

CJE                               
CJNE                              
CKE                               00000006
CKP                               00000004
CM0                               00000000
CM1                               00000001
CM2                               00000002
CMCON                             0000009C
CMIE                              00000006
CMIF                              00000006
CONTADOR                          00000020
CREN                              00000004
CSRC                              00000007
CVR0                              00000000
CVR1                              00000001
CVR2                              00000002
CVR3                              00000003
CVRCON                            0000009D
CVREN                             00000007
CVROE                             00000006
CVRR                              00000005
D                                 00000005
DATA_ADDRESS                      00000005
DC                                00000001
D_A                               00000005
D_NOT_A                           00000005
EEADR                             0000010D
EEADRH                            0000010F
EECON1                            0000018C
EECON2                            0000018D
EEDATA                            0000010C
EEDATH                            0000010E
EEIE                              00000004
EEIF                              00000004
EEPGD                             00000007
F                                 00000001
FERR                              00000002
FSR                               00000004
GCEN                              00000007
GIE                               00000007
GO                                00000002
GO_DONE                           00000002
GO_NOT_DONE                       00000002
I2C_DATA                          00000005
I2C_READ                          00000002
I2C_START                         00000003
I2C_STOP                          00000004
INDF                              00000000
INTCON                            0000000B
INTE                              00000004
INTEDG                            00000006
INTF                              00000001
IRP                               00000007
MPASM 5.84           CONTADOR_CON_MACROS.ASM   10-30-2019  0:15:33         PAGE  7


SYMBOL TABLE
  LABEL                             VALUE 

JBC                               
JBS                               
MOV                               
MOVR                              
NOT_A                             00000005
NOT_ADDRESS                       00000005
NOT_BO                            00000000
NOT_BOR                           00000000
NOT_DONE                          00000002
NOT_PD                            00000003
NOT_POR                           00000001
NOT_RBPU                          00000007
NOT_RC8                           00000006
NOT_T1SYNC                        00000002
NOT_TO                            00000004
NOT_TX8                           00000006
NOT_W                             00000002
NOT_WRITE                         00000002
OERR                              00000001
OPTION_REG                        00000081
P                                 00000004
PAGINA                            
PCFG0                             00000000
PCFG1                             00000001
PCFG2                             00000002
PCFG3                             00000003
PCL                               00000002
PCLATH                            0000000A
PCON                              0000008E
PEIE                              00000006
PEN                               00000002
PIE1                              0000008C
PIE2                              0000008D
PIR1                              0000000C
PIR2                              0000000D
PORTA                             00000005
PORTB                             00000006
PORTC                             00000007
PR2                               00000092
PS0                               00000000
PS1                               00000001
PS2                               00000002
PSA                               00000003
R                                 00000002
RA0                               00000000
RA1                               00000001
RA2                               00000002
RA3                               00000003
RA4                               00000004
RA5                               00000005
RB0                               00000000
RB1                               00000001
RB2                               00000002
MPASM 5.84           CONTADOR_CON_MACROS.ASM   10-30-2019  0:15:33         PAGE  8


SYMBOL TABLE
  LABEL                             VALUE 

RB3                               00000003
RB4                               00000004
RB5                               00000005
RB6                               00000006
RB7                               00000007
RBIE                              00000003
RBIF                              00000000
RC0                               00000000
RC1                               00000001
RC2                               00000002
RC3                               00000003
RC4                               00000004
RC5                               00000005
RC6                               00000006
RC7                               00000007
RC8_9                             00000006
RC9                               00000006
RCD8                              00000000
RCEN                              00000003
RCIE                              00000005
RCIF                              00000005
RCREG                             0000001A
RCSTA                             00000018
RD                                00000000
READ_WRITE                        00000002
RP0                               00000005
RP1                               00000006
RSEN                              00000001
RX9                               00000006
RX9D                              00000000
R_NOT_W                           00000002
R_W                               00000002
S                                 00000003
SEN                               00000000
SMP                               00000007
SPBRG                             00000099
SPEN                              00000007
SREN                              00000005
SSPADD                            00000093
SSPBUF                            00000013
SSPCON                            00000014
SSPCON2                           00000091
SSPEN                             00000005
SSPIE                             00000003
SSPIF                             00000003
SSPM0                             00000000
SSPM1                             00000001
SSPM2                             00000002
SSPM3                             00000003
SSPOV                             00000006
SSPSTAT                           00000094
STATUS                            00000003
SYNC                              00000004
MPASM 5.84           CONTADOR_CON_MACROS.ASM   10-30-2019  0:15:33         PAGE  9


SYMBOL TABLE
  LABEL                             VALUE 

T0CS                              00000005
T0IE                              00000005
T0IF                              00000002
T0SE                              00000004
T1CKPS0                           00000004
T1CKPS1                           00000005
T1CON                             00000010
T1INSYNC                          00000002
T1OSCEN                           00000003
T1SYNC                            00000002
T2CKPS0                           00000000
T2CKPS1                           00000001
T2CON                             00000012
TMR0                              00000001
TMR0IE                            00000005
TMR0IF                            00000002
TMR1                              0000000E
TMR1CS                            00000001
TMR1H                             0000000F
TMR1IE                            00000000
TMR1IF                            00000000
TMR1L                             0000000E
TMR1ON                            00000000
TMR2                              00000011
TMR2IE                            00000001
TMR2IF                            00000001
TMR2ON                            00000002
TOUTPS0                           00000003
TOUTPS1                           00000004
TOUTPS2                           00000005
TOUTPS3                           00000006
TRISA                             00000085
TRISA0                            00000000
TRISA1                            00000001
TRISA2                            00000002
TRISA3                            00000003
TRISA4                            00000004
TRISA5                            00000005
TRISB                             00000086
TRISB0                            00000000
TRISB1                            00000001
TRISB2                            00000002
TRISB3                            00000003
TRISB4                            00000004
TRISB5                            00000005
TRISB6                            00000006
TRISB7                            00000007
TRISC                             00000087
TRISC0                            00000000
TRISC1                            00000001
TRISC2                            00000002
TRISC3                            00000003
TRISC4                            00000004
MPASM 5.84           CONTADOR_CON_MACROS.ASM   10-30-2019  0:15:33         PAGE 10


SYMBOL TABLE
  LABEL                             VALUE 

TRISC5                            00000005
TRISC6                            00000006
TRISC7                            00000007
TRMT                              00000001
TX8_9                             00000006
TX9                               00000006
TX9D                              00000000
TXD8                              00000000
TXEN                              00000005
TXIE                              00000004
TXIF                              00000004
TXREG                             00000019
TXSTA                             00000098
UA                                00000001
W                                 00000000
WCOL                              00000007
WR                                00000001
WREN                              00000002
WRERR                             00000003
Z                                 00000002
_.org_0_000B                      0000000B
_BODEN_OFF                        00003FBF
_BODEN_ON                         00003FFF
_BOREN_OFF                        00003FBF
_BOREN_ON                         00003FFF
_CONFIG                           00002007
_CPD_OFF                          00003FFF
_CPD_ON                           00003EFF
_CP_ALL                           00001FFF
_CP_OFF                           00003FFF
_CP_ON                            00001FFF
_DEBUG_OFF                        00003FFF
_DEBUG_ON                         000037FF
_DEVID1                           00002006
_FOSC_EXTRC                       00003FFF
_FOSC_HS                          00003FFE
_FOSC_LP                          00003FFC
_FOSC_XT                          00003FFD
_HS_OSC                           00003FFE
_IDLOC0                           00002000
_IDLOC1                           00002001
_IDLOC2                           00002002
_IDLOC3                           00002003
_LP_OSC                           00003FFC
_LVP_OFF                          00003F7F
_LVP_ON                           00003FFF
_PWRTE_OFF                        00003FFF
_PWRTE_ON                         00003FF7
_RC_OSC                           00003FFF
_WDTE_OFF                         00003FFB
_WDTE_ON                          00003FFF
_WDT_OFF                          00003FFB
_WDT_ON                           00003FFF
MPASM 5.84           CONTADOR_CON_MACROS.ASM   10-30-2019  0:15:33         PAGE 11


SYMBOL TABLE
  LABEL                             VALUE 

_WRT_1FOURTH                      00003BFF
_WRT_256                          00003DFF
_WRT_HALF                         000039FF
_WRT_OFF                          00003FFF
_XT_OSC                           00003FFD
__16F873A                         00000001
encender_led                      00000016
encender_led1                     00000018
loop                              00000008

Errors   :     0
Warnings :     0 reported,     0 suppressed
Messages :     1 reported,     0 suppressed

